; Function Attrs: mustprogress nounwind null_pointer_is_valid sspstrong uwtable
define void @_ZN11CaptureFileD2Ev(ptr noundef align 8 dereferenceable_or_null(48) initializes((0, 8)) %0) unnamed_addr #8 align 2 personality ptr @__gxx_personality_v0 {
  store ptr getelementptr inbounds nuw inrange(-16, 96) (i8, ptr @_ZTV11CaptureFile, i64 16), ptr %0, align 8
  invoke void @cf_callback_remove(ptr noundef nonnull @_ZN11CaptureFile19captureFileCallbackEiPvS0_, ptr noundef %0)
          to label %2 unwind label %8

2:                                                ; preds = %1
  %3 = getelementptr inbounds nuw i8, ptr %0, i64 24
  %4 = load ptr, ptr %3, align 8
  %.not.i.i.i = icmp eq ptr %4, null
  br i1 %.not.i.i.i, label %_ZN7QStringD2Ev.exit, label %_ZN17QArrayDataPointerIDsE5derefEv.exit.i.i

_ZN17QArrayDataPointerIDsE5derefEv.exit.i.i:      ; preds = %2
  %5 = atomicrmw sub ptr %4, i32 1 seq_cst, align 4
  %.not.i.i = icmp eq i32 %5, 1
  br i1 %.not.i.i, label %6, label %_ZN7QStringD2Ev.exit

6:                                                ; preds = %_ZN17QArrayDataPointerIDsE5derefEv.exit.i.i
  %7 = load ptr, ptr %3, align 8
  tail call void @_ZN10QArrayData10deallocateEPS_xx(ptr noundef %7, i64 noundef 2, i64 noundef 8) #20
  br label %_ZN7QStringD2Ev.exit

_ZN7QStringD2Ev.exit:                             ; preds = %2, %_ZN17QArrayDataPointerIDsE5derefEv.exit.i.i, %6
  tail call void @_ZN7QObjectD2Ev(ptr noundef align 8 dereferenceable_or_null(16) %0) #20
  ret void

8:                                                ; preds = %1
  %9 = landingpad { ptr, i32 }
          catch ptr null
  %10 = extractvalue { ptr, i32 } %9, 0
  tail call void @__clang_call_terminate(ptr %10) #21
  unreachable
}